target datalayout = "e-m:e-p270:32:32-p271:32:32-p272:64:64-i64:64-i128:128-f80:128-n8:16:32:64-S128"
target triple = "x86_64-pc-linux-gnu"

%struct.Abc_Frame_t_ = type { ptr, ptr, ptr, ptr, ptr, ptr, ptr, ptr, ptr, ptr, i32, i32, i32, i32, i32, ptr, float, float, i32, i32, ptr, ptr, ptr, double, double, ptr, ptr, ptr, ptr, ptr, ptr, ptr, ptr, ptr, ptr, ptr, ptr, float, ptr, i32, ptr, ptr, ptr, ptr, ptr, i32, i32, i32, i32, i32, i32, ptr, ptr, ptr, ptr, ptr, ptr, i32, i32, ptr, ptr, ptr, ptr, ptr, ptr, ptr, ptr, ptr, ptr, ptr, ptr, ptr, ptr, ptr, ptr, ptr, ptr, ptr, ptr, ptr, ptr, ptr, ptr, ptr, ptr, ptr, ptr, ptr, ptr }
%struct.Vec_Int_t_ = type { i32, i32, ptr }

@.str.41 = private unnamed_addr constant [4 x i8] c"yes\00", align 1
@.str.42 = private unnamed_addr constant [3 x i8] c"no\00", align 1
@.str.179 = private unnamed_addr constant [4 x i8] c"mvh\00", align 1
@.str.180 = private unnamed_addr constant [16 x i8] c"Empty network.\0A\00", align 1
@.str.181 = private unnamed_addr constant [21 x i8] c"usage: %%show [-mh]\0A\00", align 1
@.str.182 = private unnamed_addr constant [65 x i8] c"          visualizes the network structure using DOT and GSVIEW\0A\00", align 1
@.str.183 = private unnamed_addr constant [57 x i8] c"\09-m   :  toggle showing memory subsystem [default = %s]\0A\00", align 1
@.str.184 = private unnamed_addr constant [34 x i8] c"\09-h   :  print the command usage\0A\00", align 1

; Function Attrs: inlinehint nounwind uwtable
define internal void @Vec_IntFree(ptr noundef %0) #2 {
  %2 = alloca ptr, align 8
  store ptr %0, ptr %2, align 8, !tbaa !111
  %3 = load ptr, ptr %2, align 8, !tbaa !111
  %4 = getelementptr inbounds nuw %struct.Vec_Int_t_, ptr %3, i32 0, i32 2
  %5 = load ptr, ptr %4, align 8, !tbaa !138
  %6 = icmp ne ptr %5, null
  br i1 %6, label %7, label %13

7:                                                ; preds = %1
  %8 = load ptr, ptr %2, align 8, !tbaa !111
  %9 = getelementptr inbounds nuw %struct.Vec_Int_t_, ptr %8, i32 0, i32 2
  %10 = load ptr, ptr %9, align 8, !tbaa !138
  call void @free(ptr noundef %10) #12
  %11 = load ptr, ptr %2, align 8, !tbaa !111
  %12 = getelementptr inbounds nuw %struct.Vec_Int_t_, ptr %11, i32 0, i32 2
  store ptr null, ptr %12, align 8, !tbaa !138
  br label %14

13:                                               ; preds = %1
  br label %14

14:                                               ; preds = %13, %7
  %15 = load ptr, ptr %2, align 8, !tbaa !111
  %16 = icmp ne ptr %15, null
  br i1 %16, label %17, label %19

17:                                               ; preds = %14
  %18 = load ptr, ptr %2, align 8, !tbaa !111
  call void @free(ptr noundef %18) #12
  store ptr null, ptr %2, align 8, !tbaa !111
  br label %20

19:                                               ; preds = %14
  br label %20

20:                                               ; preds = %19, %17
  ret void
}

; Function Attrs: inlinehint nounwind uwtable
define internal ptr @Wlc_AbcGetNtk(ptr noundef %0) #2 {
  %2 = alloca ptr, align 8
  store ptr %0, ptr %2, align 8, !tbaa !3
  %3 = load ptr, ptr %2, align 8, !tbaa !3
  %4 = getelementptr inbounds nuw %struct.Abc_Frame_t_, ptr %3, i32 0, i32 71
  %5 = load ptr, ptr %4, align 8, !tbaa !132
  ret ptr %5
}

; Function Attrs: nounwind uwtable
define internal i32 @Abc_CommandShow(ptr noundef %0, i32 noundef %1, ptr noundef %2) #0 {
  %4 = alloca i32, align 4
  %5 = alloca ptr, align 8
  %6 = alloca i32, align 4
  %7 = alloca ptr, align 8
  %8 = alloca ptr, align 8
  %9 = alloca i32, align 4
  %10 = alloca i32, align 4
  %11 = alloca i32, align 4
  %12 = alloca i32, align 4
  %13 = alloca ptr, align 8
  store ptr %0, ptr %5, align 8, !tbaa !3
  store i32 %1, ptr %6, align 4, !tbaa !8
  store ptr %2, ptr %7, align 8, !tbaa !10
  call void @llvm.lifetime.start.p0(i64 8, ptr %8) #12
  %14 = load ptr, ptr %5, align 8, !tbaa !3
  %15 = call ptr @Wlc_AbcGetNtk(ptr noundef %14)
  store ptr %15, ptr %8, align 8, !tbaa !12
  call void @llvm.lifetime.start.p0(i64 4, ptr %9) #12
  call void @llvm.lifetime.start.p0(i64 4, ptr %10) #12
  store i32 0, ptr %10, align 4, !tbaa !8
  call void @llvm.lifetime.start.p0(i64 4, ptr %11) #12
  store i32 0, ptr %11, align 4, !tbaa !8
  call void (...) @Extra_UtilGetoptReset()
  br label %16

16:                                               ; preds = %30, %3
  %17 = load i32, ptr %6, align 4, !tbaa !8
  %18 = load ptr, ptr %7, align 8, !tbaa !10
  %19 = call i32 @Extra_UtilGetopt(i32 noundef %17, ptr noundef %18, ptr noundef @.str.179)
  store i32 %19, ptr %9, align 4, !tbaa !8
  %20 = icmp ne i32 %19, -1
  br i1 %20, label %21, label %31

21:                                               ; preds = %16
  %22 = load i32, ptr %9, align 4, !tbaa !8
  switch i32 %22, label %29 [
    i32 109, label %23
    i32 118, label %26
  ]

23:                                               ; preds = %21
  %24 = load i32, ptr %10, align 4, !tbaa !8
  %25 = xor i32 %24, 1
  store i32 %25, ptr %10, align 4, !tbaa !8
  br label %30

26:                                               ; preds = %21
  %27 = load i32, ptr %11, align 4, !tbaa !8
  %28 = xor i32 %27, 1
  store i32 %28, ptr %11, align 4, !tbaa !8
  br label %30

29:                                               ; preds = %21
  br label %47

30:                                               ; preds = %26, %23
  br label %16, !llvm.loop !120

31:                                               ; preds = %16
  %32 = load ptr, ptr %8, align 8, !tbaa !12
  %33 = icmp eq ptr %32, null
  br i1 %33, label %34, label %35

34:                                               ; preds = %31
  call void (i32, ptr, ...) @Abc_Print(i32 noundef -1, ptr noundef @.str.180)
  store i32 1, ptr %4, align 4
  store i32 1, ptr %12, align 4
  br label %51

35:                                               ; preds = %31
  %36 = load i32, ptr %10, align 4, !tbaa !8
  %37 = icmp ne i32 %36, 0
  br i1 %37, label %38, label %44

38:                                               ; preds = %35
  call void @llvm.lifetime.start.p0(i64 8, ptr %13) #12
  %39 = load ptr, ptr %8, align 8, !tbaa !12
  %40 = call ptr @Wlc_NtkCollectMemory(ptr noundef %39, i32 noundef 1)
  store ptr %40, ptr %13, align 8, !tbaa !111
  %41 = load ptr, ptr %8, align 8, !tbaa !12
  %42 = load ptr, ptr %13, align 8, !tbaa !111
  call void @Wlc_NtkShow(ptr noundef %41, ptr noundef %42)
  %43 = load ptr, ptr %13, align 8, !tbaa !111
  call void @Vec_IntFree(ptr noundef %43)
  call void @llvm.lifetime.end.p0(i64 8, ptr %13) #12
  br label %46

44:                                               ; preds = %35
  %45 = load ptr, ptr %8, align 8, !tbaa !12
  call void @Wlc_NtkShow(ptr noundef %45, ptr noundef null)
  br label %46

46:                                               ; preds = %44, %38
  store i32 0, ptr %4, align 4
  store i32 1, ptr %12, align 4
  br label %51

47:                                               ; preds = %29
  call void (i32, ptr, ...) @Abc_Print(i32 noundef -2, ptr noundef @.str.181)
  call void (i32, ptr, ...) @Abc_Print(i32 noundef -2, ptr noundef @.str.182)
  %48 = load i32, ptr %10, align 4, !tbaa !8
  %49 = icmp ne i32 %48, 0
  %50 = select i1 %49, ptr @.str.41, ptr @.str.42
  call void (i32, ptr, ...) @Abc_Print(i32 noundef -2, ptr noundef @.str.183, ptr noundef %50)
  call void (i32, ptr, ...) @Abc_Print(i32 noundef -2, ptr noundef @.str.184)
  store i32 1, ptr %4, align 4
  store i32 1, ptr %12, align 4
  br label %51

51:                                               ; preds = %47, %46, %34
  call void @llvm.lifetime.end.p0(i64 4, ptr %11) #12
  call void @llvm.lifetime.end.p0(i64 4, ptr %10) #12
  call void @llvm.lifetime.end.p0(i64 4, ptr %9) #12
  call void @llvm.lifetime.end.p0(i64 8, ptr %8) #12
  %52 = load i32, ptr %4, align 4
  ret i32 %52
}