; Function Attrs: nounwind uwtable
define internal range(i32 0, 2) i32 @Abc_CommandShow(ptr noundef readonly captures(none) %0, i32 noundef %1, ptr noundef %2) #0 {
  %4 = getelementptr i8, ptr %0, i64 504
  %.val = load ptr, ptr %4, align 8, !tbaa !27
  tail call void (...) @Extra_UtilGetoptReset() #17
  br label %.outer

.outer:                                           ; preds = %7, %3
  %.015.ph = phi i32 [ %8, %7 ], [ 0, %3 ]
  br label %5

5:                                                ; preds = %.outer, %5
  %6 = tail call i32 @Extra_UtilGetopt(i32 noundef %1, ptr noundef %2, ptr noundef nonnull @.str.179) #17
  switch i32 %6, label %19 [
    i32 -1, label %9
    i32 109, label %7
    i32 118, label %5
  ], !llvm.loop !106

7:                                                ; preds = %5
  %8 = xor i32 %.015.ph, 1
  br label %.outer, !llvm.loop !106

9:                                                ; preds = %5
  %10 = icmp eq ptr %.val, null
  br i1 %10, label %11, label %12

11:                                               ; preds = %9
  tail call void (i32, ptr, ...) @Abc_Print(i32 noundef -1, ptr noundef nonnull @.str.180)
  br label %21

12:                                               ; preds = %9
  %.not19 = icmp eq i32 %.015.ph, 0
  br i1 %.not19, label %18, label %13

13:                                               ; preds = %12
  %14 = tail call ptr @Wlc_NtkCollectMemory(ptr noundef nonnull %.val, i32 noundef 1) #17
  tail call void @Wlc_NtkShow(ptr noundef nonnull %.val, ptr noundef %14) #17
  %15 = getelementptr inbounds nuw i8, ptr %14, i64 8
  %16 = load ptr, ptr %15, align 8, !tbaa !103
  %.not.i = icmp eq ptr %16, null
  br i1 %.not.i, label %Vec_IntFree.exit, label %17

17:                                               ; preds = %13
  tail call void @free(ptr noundef nonnull %16) #17
  br label %Vec_IntFree.exit

Vec_IntFree.exit:                                 ; preds = %13, %17
  tail call void @free(ptr noundef nonnull %14) #17
  br label %21

18:                                               ; preds = %12
  tail call void @Wlc_NtkShow(ptr noundef nonnull %.val, ptr noundef null) #17
  br label %21

19:                                               ; preds = %5
  tail call void (i32, ptr, ...) @Abc_Print(i32 noundef -2, ptr noundef nonnull @.str.181)
  tail call void (i32, ptr, ...) @Abc_Print(i32 noundef -2, ptr noundef nonnull @.str.182)
  %.not20 = icmp eq i32 %.015.ph, 0
  %20 = select i1 %.not20, ptr @.str.42, ptr @.str.41
  tail call void (i32, ptr, ...) @Abc_Print(i32 noundef -2, ptr noundef nonnull @.str.183, ptr noundef nonnull %20)
  tail call void (i32, ptr, ...) @Abc_Print(i32 noundef -2, ptr noundef nonnull @.str.184)
  br label %21

21:                                               ; preds = %Vec_IntFree.exit, %18, %19, %11
  %.0 = phi i32 [ 1, %19 ], [ 1, %11 ], [ 0, %18 ], [ 0, %Vec_IntFree.exit ]
  ret i32 %.0
}